target datalayout = "e-m:e-p270:32:32-p271:32:32-p272:64:64-i64:64-i128:128-f80:128-n8:16:32:64-S128"
target triple = "x86_64-pc-linux-gnu"

%struct.png_XYZ = type { i32, i32, i32, i32, i32, i32, i32, i32, i32 }
%struct.png_xy = type { i32, i32, i32, i32, i32, i32, i32, i32 }
%struct.png_struct_def = type { [1 x %struct.__jmp_buf_tag], ptr, ptr, i64, ptr, ptr, ptr, ptr, ptr, ptr, ptr, ptr, ptr, i8, i8, i32, i32, i32, i32, %struct.z_stream_s, ptr, i32, i32, i32, i32, i32, i32, i32, i32, i32, i32, i32, i32, i32, i32, i32, i32, i32, i32, i32, i32, i64, i32, i32, i32, ptr, ptr, ptr, ptr, i64, i32, i32, ptr, i16, i32, i16, i8, i8, i8, i8, i8, i8, i8, i8, i8, i8, i8, i8, i8, i8, i8, i16, i8, i32, %struct.png_color_16_struct, %struct.png_color_16_struct, ptr, i32, i32, i32, i32, ptr, ptr, ptr, ptr, ptr, ptr, %struct.png_color_8_struct, %struct.png_color_8_struct, ptr, %struct.png_color_16_struct, ptr, ptr, ptr, ptr, ptr, ptr, ptr, ptr, ptr, i32, i32, i64, i64, i64, i64, i32, i32, ptr, ptr, i32, [29 x i8], i32, ptr, ptr, i32, i32, ptr, i8, i8, i16, i16, ptr, i32, i8, ptr, ptr, ptr, ptr, ptr, ptr, ptr, i8, i32, i32, i32, i64, %struct.png_unknown_chunk_t, i64, ptr, i64, i32, i32, ptr, [4 x ptr], %struct.png_colorspace }
%struct.__jmp_buf_tag = type { [8 x i64], i32, %struct.__sigset_t }
%struct.__sigset_t = type { [16 x i64] }
%struct.z_stream_s = type { ptr, i32, i64, ptr, i32, i64, ptr, ptr, ptr, ptr, ptr, i32, i64, i64 }
%struct.png_color_8_struct = type { i8, i8, i8, i8, i8 }
%struct.png_color_16_struct = type { i8, i16, i16, i16, i16 }
%struct.png_unknown_chunk_t = type { [5 x i8], ptr, i64, i8 }
%struct.png_colorspace = type { i32, %struct.png_xy, %struct.png_XYZ, i16, i16 }

; Function Attrs: nounwind uwtable
define void @png_calculate_crc(ptr noalias noundef %0, ptr noundef %1, i64 noundef %2) #0 {
  %4 = alloca ptr, align 8
  %5 = alloca ptr, align 8
  %6 = alloca i64, align 8
  %7 = alloca i32, align 4
  %8 = alloca i64, align 8
  %9 = alloca i32, align 4
  store ptr %0, ptr %4, align 8
  store ptr %1, ptr %5, align 8
  store i64 %2, ptr %6, align 8
  store i32 1, ptr %7, align 4
  %10 = load ptr, ptr %4, align 8
  %11 = getelementptr inbounds %struct.png_struct_def, ptr %10, i32 0, i32 44
  %12 = load i32, ptr %11, align 8
  %13 = lshr i32 %12, 29
  %14 = and i32 1, %13
  %15 = icmp ne i32 %14, 0
  br i1 %15, label %16, label %24

16:                                               ; preds = %3
  %17 = load ptr, ptr %4, align 8
  %18 = getelementptr inbounds %struct.png_struct_def, ptr %17, i32 0, i32 16
  %19 = load i32, ptr %18, align 8
  %20 = and i32 %19, 768
  %21 = icmp eq i32 %20, 768
  br i1 %21, label %22, label %23

22:                                               ; preds = %16
  store i32 0, ptr %7, align 4
  br label %23

23:                                               ; preds = %22, %16
  br label %32

24:                                               ; preds = %3
  %25 = load ptr, ptr %4, align 8
  %26 = getelementptr inbounds %struct.png_struct_def, ptr %25, i32 0, i32 16
  %27 = load i32, ptr %26, align 8
  %28 = and i32 %27, 2048
  %29 = icmp ne i32 %28, 0
  br i1 %29, label %30, label %31

30:                                               ; preds = %24
  store i32 0, ptr %7, align 4
  br label %31

31:                                               ; preds = %30, %24
  br label %32

32:                                               ; preds = %31, %23
  %33 = load i32, ptr %7, align 4
  %34 = icmp ne i32 %33, 0
  br i1 %34, label %35, label %70

35:                                               ; preds = %32
  %36 = load i64, ptr %6, align 8
  %37 = icmp ugt i64 %36, 0
  br i1 %37, label %38, label %70

38:                                               ; preds = %35
  %39 = load ptr, ptr %4, align 8
  %40 = getelementptr inbounds %struct.png_struct_def, ptr %39, i32 0, i32 51
  %41 = load i32, ptr %40, align 4
  %42 = zext i32 %41 to i64
  store i64 %42, ptr %8, align 8
  br label %43

43:                                               ; preds = %62, %38
  %44 = load i64, ptr %6, align 8
  %45 = trunc i64 %44 to i32
  store i32 %45, ptr %9, align 4
  %46 = load i32, ptr %9, align 4
  %47 = icmp eq i32 %46, 0
  br i1 %47, label %48, label %49

48:                                               ; preds = %43
  store i32 -1, ptr %9, align 4
  br label %49

49:                                               ; preds = %48, %43
  %50 = load i64, ptr %8, align 8
  %51 = load ptr, ptr %5, align 8
  %52 = load i32, ptr %9, align 4
  %53 = call i64 @crc32(i64 noundef %50, ptr noundef %51, i32 noundef %52)
  store i64 %53, ptr %8, align 8
  %54 = load i32, ptr %9, align 4
  %55 = load ptr, ptr %5, align 8
  %56 = zext i32 %54 to i64
  %57 = getelementptr inbounds i8, ptr %55, i64 %56
  store ptr %57, ptr %5, align 8
  %58 = load i32, ptr %9, align 4
  %59 = zext i32 %58 to i64
  %60 = load i64, ptr %6, align 8
  %61 = sub i64 %60, %59
  store i64 %61, ptr %6, align 8
  br label %62

62:                                               ; preds = %49
  %63 = load i64, ptr %6, align 8
  %64 = icmp ugt i64 %63, 0
  br i1 %64, label %43, label %65, !llvm.loop !4

65:                                               ; preds = %62
  %66 = load i64, ptr %8, align 8
  %67 = trunc i64 %66 to i32
  %68 = load ptr, ptr %4, align 8
  %69 = getelementptr inbounds %struct.png_struct_def, ptr %68, i32 0, i32 51
  store i32 %67, ptr %69, align 4
  br label %70

70:                                               ; preds = %65, %35, %32
  ret void
}