; Function Attrs: nounwind uwtable
define void @png_calculate_crc(ptr noalias nocapture noundef %0, ptr noundef %1, i64 noundef %2) local_unnamed_addr #0 {
  %4 = getelementptr inbounds i8, ptr %0, i64 536
  %5 = load i32, ptr %4, align 8
  %6 = and i32 %5, 536870912
  %.not = icmp eq i32 %6, 0
  %7 = getelementptr inbounds i8, ptr %0, i64 304
  %8 = load i32, ptr %7, align 8
  %9 = and i32 %8, 768
  %10 = icmp ne i32 %9, 768
  %11 = and i32 %8, 2048
  %.not22 = icmp eq i32 %11, 0
  %12 = select i1 %.not, i1 %.not22, i1 %10
  %13 = icmp ne i64 %2, 0
  %or.cond = and i1 %13, %12
  br i1 %or.cond, label %14, label %27

14:                                               ; preds = %3
  %15 = getelementptr inbounds i8, ptr %0, i64 588
  %16 = load i32, ptr %15, align 4
  %17 = zext i32 %16 to i64
  br label %18

18:                                               ; preds = %18, %14
  %.020 = phi i64 [ %2, %14 ], [ %24, %18 ]
  %.018 = phi i64 [ %17, %14 ], [ %21, %18 ]
  %.0 = phi ptr [ %1, %14 ], [ %23, %18 ]
  %19 = trunc i64 %.020 to i32
  %20 = icmp eq i32 %19, 0
  %spec.store.select = select i1 %20, i32 -1, i32 %19
  %21 = tail call i64 @crc32(i64 noundef %.018, ptr noundef %.0, i32 noundef %spec.store.select) #29
  %22 = zext i32 %spec.store.select to i64
  %23 = getelementptr inbounds i8, ptr %.0, i64 %22
  %24 = sub i64 %.020, %22
  %.not23 = icmp eq i64 %24, 0
  br i1 %.not23, label %25, label %18, !llvm.loop !4

25:                                               ; preds = %18
  %26 = trunc i64 %21 to i32
  store i32 %26, ptr %15, align 4
  br label %27

27:                                               ; preds = %25, %3
  ret void
}